; ModuleID = '24/2051.c'
source_filename = "24/2051.c"
target datalayout = "e-m:e-p270:32:32-p271:32:32-p272:64:64-i64:64-f80:128-n8:16:32:64-S128"
target triple = "x86_64-pc-linux-gnu"

@.str = private unnamed_addr constant [4 x i8] c"%s\0A\00", align 1

; Function Attrs: noinline nounwind uwtable
define dso_local i32 @main() #0 {
  %1 = alloca i32, align 4
  %2 = alloca [100 x i8], align 16
  %3 = alloca [100 x [100 x i8]], align 16
  %4 = alloca i32, align 4
  %5 = alloca i32, align 4
  %6 = alloca i32, align 4
  %7 = alloca i32, align 4
  %8 = alloca i32, align 4
  %9 = alloca [100 x i8], align 16
  %10 = alloca [100 x i8], align 16
  store i32 0, i32* %1, align 4
  %11 = getelementptr inbounds [100 x i8], [100 x i8]* %2, i64 0, i64 0
  %12 = call i32 (i8*, ...) bitcast (i32 (...)* @gets to i32 (i8*, ...)*)(i8* %11)
  %13 = getelementptr inbounds [100 x i8], [100 x i8]* %2, i64 0, i64 0
  %14 = call i64 @strlen(i8* %13) #4
  %15 = trunc i64 %14 to i32
  store i32 %15, i32* %5, align 4
  store i32 0, i32* %6, align 4
  store i32 0, i32* %7, align 4
  store i32 0, i32* %4, align 4
  br label %16

16:                                               ; preds = %74, %0
  %17 = load i32, i32* %4, align 4
  %18 = load i32, i32* %5, align 4
  %19 = icmp slt i32 %17, %18
  br i1 %19, label %20, label %77

20:                                               ; preds = %16
  %21 = load i32, i32* %4, align 4
  %22 = sext i32 %21 to i64
  %23 = getelementptr inbounds [100 x i8], [100 x i8]* %2, i64 0, i64 %22
  %24 = load i8, i8* %23, align 1
  %25 = sext i8 %24 to i32
  %26 = icmp ne i32 %25, 32
  br i1 %26, label %27, label %47

27:                                               ; preds = %20
  %28 = load i32, i32* %4, align 4
  %29 = sext i32 %28 to i64
  %30 = getelementptr inbounds [100 x i8], [100 x i8]* %2, i64 0, i64 %29
  %31 = load i8, i8* %30, align 1
  %32 = sext i8 %31 to i32
  %33 = icmp ne i32 %32, 44
  br i1 %33, label %34, label %47

34:                                               ; preds = %27
  %35 = load i32, i32* %4, align 4
  %36 = sext i32 %35 to i64
  %37 = getelementptr inbounds [100 x i8], [100 x i8]* %2, i64 0, i64 %36
  %38 = load i8, i8* %37, align 1
  %39 = load i32, i32* %6, align 4
  %40 = sext i32 %39 to i64
  %41 = getelementptr inbounds [100 x [100 x i8]], [100 x [100 x i8]]* %3, i64 0, i64 %40
  %42 = load i32, i32* %7, align 4
  %43 = sext i32 %42 to i64
  %44 = getelementptr inbounds [100 x i8], [100 x i8]* %41, i64 0, i64 %43
  store i8 %38, i8* %44, align 1
  %45 = load i32, i32* %7, align 4
  %46 = add nsw i32 %45, 1
  store i32 %46, i32* %7, align 4
  br label %73

47:                                               ; preds = %27, %20
  %48 = load i32, i32* %4, align 4
  %49 = add nsw i32 %48, 1
  %50 = sext i32 %49 to i64
  %51 = getelementptr inbounds [100 x i8], [100 x i8]* %2, i64 0, i64 %50
  %52 = load i8, i8* %51, align 1
  %53 = sext i8 %52 to i32
  %54 = icmp ne i32 %53, 32
  br i1 %54, label %55, label %72

55:                                               ; preds = %47
  %56 = load i32, i32* %4, align 4
  %57 = add nsw i32 %56, 1
  %58 = sext i32 %57 to i64
  %59 = getelementptr inbounds [100 x i8], [100 x i8]* %2, i64 0, i64 %58
  %60 = load i8, i8* %59, align 1
  %61 = sext i8 %60 to i32
  %62 = icmp ne i32 %61, 44
  br i1 %62, label %63, label %72

63:                                               ; preds = %55
  %64 = load i32, i32* %6, align 4
  %65 = sext i32 %64 to i64
  %66 = getelementptr inbounds [100 x [100 x i8]], [100 x [100 x i8]]* %3, i64 0, i64 %65
  %67 = load i32, i32* %7, align 4
  %68 = sext i32 %67 to i64
  %69 = getelementptr inbounds [100 x i8], [100 x i8]* %66, i64 0, i64 %68
  store i8 0, i8* %69, align 1
  %70 = load i32, i32* %6, align 4
  %71 = add nsw i32 %70, 1
  store i32 %71, i32* %6, align 4
  store i32 0, i32* %7, align 4
  br label %72

72:                                               ; preds = %63, %55, %47
  br label %73

73:                                               ; preds = %72, %34
  br label %74

74:                                               ; preds = %73
  %75 = load i32, i32* %4, align 4
  %76 = add nsw i32 %75, 1
  store i32 %76, i32* %4, align 4
  br label %16

77:                                               ; preds = %16
  %78 = load i32, i32* %6, align 4
  %79 = sext i32 %78 to i64
  %80 = getelementptr inbounds [100 x [100 x i8]], [100 x [100 x i8]]* %3, i64 0, i64 %79
  %81 = load i32, i32* %7, align 4
  %82 = sext i32 %81 to i64
  %83 = getelementptr inbounds [100 x i8], [100 x i8]* %80, i64 0, i64 %82
  store i8 0, i8* %83, align 1
  store i32 1, i32* %8, align 4
  br label %84

84:                                               ; preds = %139, %77
  %85 = load i32, i32* %8, align 4
  %86 = load i32, i32* %6, align 4
  %87 = add nsw i32 %86, 1
  %88 = icmp sle i32 %85, %87
  br i1 %88, label %89, label %142

89:                                               ; preds = %84
  store i32 0, i32* %4, align 4
  br label %90

90:                                               ; preds = %135, %89
  %91 = load i32, i32* %4, align 4
  %92 = load i32, i32* %6, align 4
  %93 = add nsw i32 %92, 1
  %94 = load i32, i32* %8, align 4
  %95 = sub nsw i32 %93, %94
  %96 = icmp slt i32 %91, %95
  br i1 %96, label %97, label %138

97:                                               ; preds = %90
  %98 = load i32, i32* %4, align 4
  %99 = add nsw i32 %98, 1
  %100 = sext i32 %99 to i64
  %101 = getelementptr inbounds [100 x [100 x i8]], [100 x [100 x i8]]* %3, i64 0, i64 %100
  %102 = getelementptr inbounds [100 x i8], [100 x i8]* %101, i64 0, i64 0
  %103 = call i64 @strlen(i8* %102) #4
  %104 = load i32, i32* %4, align 4
  %105 = sext i32 %104 to i64
  %106 = getelementptr inbounds [100 x [100 x i8]], [100 x [100 x i8]]* %3, i64 0, i64 %105
  %107 = getelementptr inbounds [100 x i8], [100 x i8]* %106, i64 0, i64 0
  %108 = call i64 @strlen(i8* %107) #4
  %109 = icmp ugt i64 %103, %108
  br i1 %109, label %110, label %134

110:                                              ; preds = %97
  %111 = getelementptr inbounds [100 x i8], [100 x i8]* %9, i64 0, i64 0
  %112 = load i32, i32* %4, align 4
  %113 = add nsw i32 %112, 1
  %114 = sext i32 %113 to i64
  %115 = getelementptr inbounds [100 x [100 x i8]], [100 x [100 x i8]]* %3, i64 0, i64 %114
  %116 = getelementptr inbounds [100 x i8], [100 x i8]* %115, i64 0, i64 0
  %117 = call i8* @strcpy(i8* %111, i8* %116) #5
  %118 = load i32, i32* %4, align 4
  %119 = add nsw i32 %118, 1
  %120 = sext i32 %119 to i64
  %121 = getelementptr inbounds [100 x [100 x i8]], [100 x [100 x i8]]* %3, i64 0, i64 %120
  %122 = getelementptr inbounds [100 x i8], [100 x i8]* %121, i64 0, i64 0
  %123 = load i32, i32* %4, align 4
  %124 = sext i32 %123 to i64
  %125 = getelementptr inbounds [100 x [100 x i8]], [100 x [100 x i8]]* %3, i64 0, i64 %124
  %126 = getelementptr inbounds [100 x i8], [100 x i8]* %125, i64 0, i64 0
  %127 = call i8* @strcpy(i8* %122, i8* %126) #5
  %128 = load i32, i32* %4, align 4
  %129 = sext i32 %128 to i64
  %130 = getelementptr inbounds [100 x [100 x i8]], [100 x [100 x i8]]* %3, i64 0, i64 %129
  %131 = getelementptr inbounds [100 x i8], [100 x i8]* %130, i64 0, i64 0
  %132 = getelementptr inbounds [100 x i8], [100 x i8]* %9, i64 0, i64 0
  %133 = call i8* @strcpy(i8* %131, i8* %132) #5
  br label %134

134:                                              ; preds = %110, %97
  br label %135

135:                                              ; preds = %134
  %136 = load i32, i32* %4, align 4
  %137 = add nsw i32 %136, 1
  store i32 %137, i32* %4, align 4
  br label %90

138:                                              ; preds = %90
  br label %139

139:                                              ; preds = %138
  %140 = load i32, i32* %8, align 4
  %141 = add nsw i32 %140, 1
  store i32 %141, i32* %8, align 4
  br label %84

142:                                              ; preds = %84
  %143 = getelementptr inbounds [100 x [100 x i8]], [100 x [100 x i8]]* %3, i64 0, i64 0
  %144 = getelementptr inbounds [100 x i8], [100 x i8]* %143, i64 0, i64 0
  %145 = call i32 (i8*, ...) @printf(i8* getelementptr inbounds ([4 x i8], [4 x i8]* @.str, i64 0, i64 0), i8* %144)
  store i32 1, i32* %8, align 4
  br label %146

146:                                              ; preds = %201, %142
  %147 = load i32, i32* %8, align 4
  %148 = load i32, i32* %6, align 4
  %149 = add nsw i32 %148, 1
  %150 = icmp sle i32 %147, %149
  br i1 %150, label %151, label %204

151:                                              ; preds = %146
  store i32 0, i32* %4, align 4
  br label %152

152:                                              ; preds = %197, %151
  %153 = load i32, i32* %4, align 4
  %154 = load i32, i32* %6, align 4
  %155 = add nsw i32 %154, 1
  %156 = load i32, i32* %8, align 4
  %157 = sub nsw i32 %155, %156
  %158 = icmp slt i32 %153, %157
  br i1 %158, label %159, label %200

159:                                              ; preds = %152
  %160 = load i32, i32* %4, align 4
  %161 = add nsw i32 %160, 1
  %162 = sext i32 %161 to i64
  %163 = getelementptr inbounds [100 x [100 x i8]], [100 x [100 x i8]]* %3, i64 0, i64 %162
  %164 = getelementptr inbounds [100 x i8], [100 x i8]* %163, i64 0, i64 0
  %165 = call i64 @strlen(i8* %164) #4
  %166 = load i32, i32* %4, align 4
  %167 = sext i32 %166 to i64
  %168 = getelementptr inbounds [100 x [100 x i8]], [100 x [100 x i8]]* %3, i64 0, i64 %167
  %169 = getelementptr inbounds [100 x i8], [100 x i8]* %168, i64 0, i64 0
  %170 = call i64 @strlen(i8* %169) #4
  %171 = icmp ult i64 %165, %170
  br i1 %171, label %172, label %196

172:                                              ; preds = %159
  %173 = getelementptr inbounds [100 x i8], [100 x i8]* %10, i64 0, i64 0
  %174 = load i32, i32* %4, align 4
  %175 = add nsw i32 %174, 1
  %176 = sext i32 %175 to i64
  %177 = getelementptr inbounds [100 x [100 x i8]], [100 x [100 x i8]]* %3, i64 0, i64 %176
  %178 = getelementptr inbounds [100 x i8], [100 x i8]* %177, i64 0, i64 0
  %179 = call i8* @strcpy(i8* %173, i8* %178) #5
  %180 = load i32, i32* %4, align 4
  %181 = add nsw i32 %180, 1
  %182 = sext i32 %181 to i64
  %183 = getelementptr inbounds [100 x [100 x i8]], [100 x [100 x i8]]* %3, i64 0, i64 %182
  %184 = getelementptr inbounds [100 x i8], [100 x i8]* %183, i64 0, i64 0
  %185 = load i32, i32* %4, align 4
  %186 = sext i32 %185 to i64
  %187 = getelementptr inbounds [100 x [100 x i8]], [100 x [100 x i8]]* %3, i64 0, i64 %186
  %188 = getelementptr inbounds [100 x i8], [100 x i8]* %187, i64 0, i64 0
  %189 = call i8* @strcpy(i8* %184, i8* %188) #5
  %190 = load i32, i32* %4, align 4
  %191 = sext i32 %190 to i64
  %192 = getelementptr inbounds [100 x [100 x i8]], [100 x [100 x i8]]* %3, i64 0, i64 %191
  %193 = getelementptr inbounds [100 x i8], [100 x i8]* %192, i64 0, i64 0
  %194 = getelementptr inbounds [100 x i8], [100 x i8]* %10, i64 0, i64 0
  %195 = call i8* @strcpy(i8* %193, i8* %194) #5
  br label %196

196:                                              ; preds = %172, %159
  br label %197

197:                                              ; preds = %196
  %198 = load i32, i32* %4, align 4
  %199 = add nsw i32 %198, 1
  store i32 %199, i32* %4, align 4
  br label %152

200:                                              ; preds = %152
  br label %201

201:                                              ; preds = %200
  %202 = load i32, i32* %8, align 4
  %203 = add nsw i32 %202, 1
  store i32 %203, i32* %8, align 4
  br label %146

204:                                              ; preds = %146
  %205 = getelementptr inbounds [100 x [100 x i8]], [100 x [100 x i8]]* %3, i64 0, i64 0
  %206 = getelementptr inbounds [100 x i8], [100 x i8]* %205, i64 0, i64 0
  %207 = call i32 (i8*, ...) @printf(i8* getelementptr inbounds ([4 x i8], [4 x i8]* @.str, i64 0, i64 0), i8* %206)
  ret i32 0
}

declare dso_local i32 @gets(...) #1

; Function Attrs: nounwind readonly
declare dso_local i64 @strlen(i8*) #2

; Function Attrs: nounwind
declare dso_local i8* @strcpy(i8*, i8*) #3

declare dso_local i32 @printf(i8*, ...) #1


!llvm.module.flags = !{!0}
!llvm.ident = !{!1}

!0 = !{i32 1, !"wchar_size", i32 4}
!1 = !{!"clang version 10.0.0-4ubuntu1 "}
